target datalayout = "e-m:e-p270:32:32-p271:32:32-p272:64:64-i64:64-i128:128-f80:128-n8:16:32:64-S128"
target triple = "x86_64-pc-linux-gnu"

%struct.AVCodecContext = type { ptr, i32, i32, ptr, i32, i32, ptr, ptr, ptr, i64, i32, i32, ptr, i32, %struct.AVRational, %struct.AVRational, %struct.AVRational, i32, i32, i32, i32, i32, %struct.AVRational, i32, i32, i32, i32, i32, i32, i32, i32, i32, i32, i32, ptr, ptr, i32, float, float, float, float, float, float, float, float, float, i32, i32, i32, i32, i32, i32, i32, i32, i32, i32, i32, i32, ptr, ptr, ptr, i32, i32, i32, i32, i32, i32, i32, i32, i32, i32, %struct.AVChannelLayout, i32, i32, i32, i32, i32, i32, i32, i32, ptr, i32, i32, i32, float, float, i32, i32, i32, i32, i32, ptr, i64, i64, float, float, i32, i32, ptr, ptr, i32, i32, i32, i32, i32, ptr, ptr, ptr, ptr, i32, i32, [8 x i64], i32, i32, i32, i32, i32, i32, i32, ptr, ptr, i32, i32, i32, i32, i32, i32, i32, i32, i32, i32, ptr, ptr, i32, i32, ptr, ptr, ptr, ptr, i32, i32, i64, i32, i32, i64, ptr, i64, ptr, i32, ptr, i32 }
%struct.AVRational = type { i32, i32 }
%struct.AVChannelLayout = type { i32, i32, %union.anon, ptr }
%union.anon = type { i64 }
%struct.IDCTDSPContext = type { ptr, ptr, ptr, ptr, ptr, ptr, [64 x i8], i32, i32 }

; Function Attrs: cold nounwind optsize uwtable
define void @ff_idctdsp_init(ptr noundef %0, ptr noundef %1) #0 {
  %3 = alloca ptr, align 8
  %4 = alloca ptr, align 8
  %5 = alloca i32, align 4
  store ptr %0, ptr %3, align 8, !tbaa !26
  store ptr %1, ptr %4, align 8, !tbaa !28
  call void @llvm.lifetime.start.p0(i64 4, ptr %5) #5
  %6 = load ptr, ptr %4, align 8, !tbaa !28
  %7 = getelementptr inbounds nuw %struct.AVCodecContext, ptr %6, i32 0, i32 115
  %8 = load i32, ptr %7, align 4, !tbaa !30
  %9 = icmp sgt i32 %8, 8
  %10 = zext i1 %9 to i32
  store i32 %10, ptr %5, align 4, !tbaa !9
  %11 = load ptr, ptr %4, align 8, !tbaa !28
  %12 = getelementptr inbounds nuw %struct.AVCodecContext, ptr %11, i32 0, i32 130
  %13 = load i32, ptr %12, align 4, !tbaa !46
  %14 = icmp eq i32 %13, 1
  br i1 %14, label %15, label %24

15:                                               ; preds = %2
  %16 = load ptr, ptr %3, align 8, !tbaa !26
  %17 = getelementptr inbounds nuw %struct.IDCTDSPContext, ptr %16, i32 0, i32 4
  store ptr @ff_jref_idct4_put, ptr %17, align 8, !tbaa !47
  %18 = load ptr, ptr %3, align 8, !tbaa !26
  %19 = getelementptr inbounds nuw %struct.IDCTDSPContext, ptr %18, i32 0, i32 5
  store ptr @ff_jref_idct4_add, ptr %19, align 8, !tbaa !49
  %20 = load ptr, ptr %3, align 8, !tbaa !26
  %21 = getelementptr inbounds nuw %struct.IDCTDSPContext, ptr %20, i32 0, i32 3
  store ptr @ff_j_rev_dct4, ptr %21, align 8, !tbaa !50
  %22 = load ptr, ptr %3, align 8, !tbaa !26
  %23 = getelementptr inbounds nuw %struct.IDCTDSPContext, ptr %22, i32 0, i32 7
  store i32 0, ptr %23, align 8, !tbaa !51
  br label %141

24:                                               ; preds = %2
  %25 = load ptr, ptr %4, align 8, !tbaa !28
  %26 = getelementptr inbounds nuw %struct.AVCodecContext, ptr %25, i32 0, i32 130
  %27 = load i32, ptr %26, align 4, !tbaa !46
  %28 = icmp eq i32 %27, 2
  br i1 %28, label %29, label %38

29:                                               ; preds = %24
  %30 = load ptr, ptr %3, align 8, !tbaa !26
  %31 = getelementptr inbounds nuw %struct.IDCTDSPContext, ptr %30, i32 0, i32 4
  store ptr @ff_jref_idct2_put, ptr %31, align 8, !tbaa !47
  %32 = load ptr, ptr %3, align 8, !tbaa !26
  %33 = getelementptr inbounds nuw %struct.IDCTDSPContext, ptr %32, i32 0, i32 5
  store ptr @ff_jref_idct2_add, ptr %33, align 8, !tbaa !49
  %34 = load ptr, ptr %3, align 8, !tbaa !26
  %35 = getelementptr inbounds nuw %struct.IDCTDSPContext, ptr %34, i32 0, i32 3
  store ptr @ff_j_rev_dct2, ptr %35, align 8, !tbaa !50
  %36 = load ptr, ptr %3, align 8, !tbaa !26
  %37 = getelementptr inbounds nuw %struct.IDCTDSPContext, ptr %36, i32 0, i32 7
  store i32 0, ptr %37, align 8, !tbaa !51
  br label %140

38:                                               ; preds = %24
  %39 = load ptr, ptr %4, align 8, !tbaa !28
  %40 = getelementptr inbounds nuw %struct.AVCodecContext, ptr %39, i32 0, i32 130
  %41 = load i32, ptr %40, align 4, !tbaa !46
  %42 = icmp eq i32 %41, 3
  br i1 %42, label %43, label %52

43:                                               ; preds = %38
  %44 = load ptr, ptr %3, align 8, !tbaa !26
  %45 = getelementptr inbounds nuw %struct.IDCTDSPContext, ptr %44, i32 0, i32 4
  store ptr @ff_jref_idct1_put, ptr %45, align 8, !tbaa !47
  %46 = load ptr, ptr %3, align 8, !tbaa !26
  %47 = getelementptr inbounds nuw %struct.IDCTDSPContext, ptr %46, i32 0, i32 5
  store ptr @ff_jref_idct1_add, ptr %47, align 8, !tbaa !49
  %48 = load ptr, ptr %3, align 8, !tbaa !26
  %49 = getelementptr inbounds nuw %struct.IDCTDSPContext, ptr %48, i32 0, i32 3
  store ptr @ff_j_rev_dct1, ptr %49, align 8, !tbaa !50
  %50 = load ptr, ptr %3, align 8, !tbaa !26
  %51 = getelementptr inbounds nuw %struct.IDCTDSPContext, ptr %50, i32 0, i32 7
  store i32 0, ptr %51, align 8, !tbaa !51
  br label %139

52:                                               ; preds = %38
  %53 = load ptr, ptr %4, align 8, !tbaa !28
  %54 = getelementptr inbounds nuw %struct.AVCodecContext, ptr %53, i32 0, i32 115
  %55 = load i32, ptr %54, align 4, !tbaa !30
  %56 = icmp eq i32 %55, 10
  br i1 %56, label %62, label %57

57:                                               ; preds = %52
  %58 = load ptr, ptr %4, align 8, !tbaa !28
  %59 = getelementptr inbounds nuw %struct.AVCodecContext, ptr %58, i32 0, i32 115
  %60 = load i32, ptr %59, align 4, !tbaa !30
  %61 = icmp eq i32 %60, 9
  br i1 %61, label %62, label %84

62:                                               ; preds = %57, %52
  %63 = load ptr, ptr %3, align 8, !tbaa !26
  %64 = getelementptr inbounds nuw %struct.IDCTDSPContext, ptr %63, i32 0, i32 8
  %65 = load i32, ptr %64, align 4, !tbaa !52
  %66 = icmp ne i32 %65, 0
  br i1 %66, label %67, label %74

67:                                               ; preds = %62
  %68 = load ptr, ptr %3, align 8, !tbaa !26
  %69 = getelementptr inbounds nuw %struct.IDCTDSPContext, ptr %68, i32 0, i32 4
  store ptr @ff_simple_idct_put_int32_10bit, ptr %69, align 8, !tbaa !47
  %70 = load ptr, ptr %3, align 8, !tbaa !26
  %71 = getelementptr inbounds nuw %struct.IDCTDSPContext, ptr %70, i32 0, i32 5
  store ptr null, ptr %71, align 8, !tbaa !49
  %72 = load ptr, ptr %3, align 8, !tbaa !26
  %73 = getelementptr inbounds nuw %struct.IDCTDSPContext, ptr %72, i32 0, i32 3
  store ptr null, ptr %73, align 8, !tbaa !50
  br label %81

74:                                               ; preds = %62
  %75 = load ptr, ptr %3, align 8, !tbaa !26
  %76 = getelementptr inbounds nuw %struct.IDCTDSPContext, ptr %75, i32 0, i32 4
  store ptr @ff_simple_idct_put_int16_10bit, ptr %76, align 8, !tbaa !47
  %77 = load ptr, ptr %3, align 8, !tbaa !26
  %78 = getelementptr inbounds nuw %struct.IDCTDSPContext, ptr %77, i32 0, i32 5
  store ptr @ff_simple_idct_add_int16_10bit, ptr %78, align 8, !tbaa !49
  %79 = load ptr, ptr %3, align 8, !tbaa !26
  %80 = getelementptr inbounds nuw %struct.IDCTDSPContext, ptr %79, i32 0, i32 3
  store ptr @ff_simple_idct_int16_10bit, ptr %80, align 8, !tbaa !50
  br label %81

81:                                               ; preds = %74, %67
  %82 = load ptr, ptr %3, align 8, !tbaa !26
  %83 = getelementptr inbounds nuw %struct.IDCTDSPContext, ptr %82, i32 0, i32 7
  store i32 0, ptr %83, align 8, !tbaa !51
  br label %138

84:                                               ; preds = %57
  %85 = load ptr, ptr %4, align 8, !tbaa !28
  %86 = getelementptr inbounds nuw %struct.AVCodecContext, ptr %85, i32 0, i32 115
  %87 = load i32, ptr %86, align 4, !tbaa !30
  %88 = icmp eq i32 %87, 12
  br i1 %88, label %89, label %98

89:                                               ; preds = %84
  %90 = load ptr, ptr %3, align 8, !tbaa !26
  %91 = getelementptr inbounds nuw %struct.IDCTDSPContext, ptr %90, i32 0, i32 4
  store ptr @ff_simple_idct_put_int16_12bit, ptr %91, align 8, !tbaa !47
  %92 = load ptr, ptr %3, align 8, !tbaa !26
  %93 = getelementptr inbounds nuw %struct.IDCTDSPContext, ptr %92, i32 0, i32 5
  store ptr @ff_simple_idct_add_int16_12bit, ptr %93, align 8, !tbaa !49
  %94 = load ptr, ptr %3, align 8, !tbaa !26
  %95 = getelementptr inbounds nuw %struct.IDCTDSPContext, ptr %94, i32 0, i32 3
  store ptr @ff_simple_idct_int16_12bit, ptr %95, align 8, !tbaa !50
  %96 = load ptr, ptr %3, align 8, !tbaa !26
  %97 = getelementptr inbounds nuw %struct.IDCTDSPContext, ptr %96, i32 0, i32 7
  store i32 0, ptr %97, align 8, !tbaa !51
  br label %137

98:                                               ; preds = %84
  %99 = load ptr, ptr %4, align 8, !tbaa !28
  %100 = getelementptr inbounds nuw %struct.AVCodecContext, ptr %99, i32 0, i32 113
  %101 = load i32, ptr %100, align 4, !tbaa !53
  %102 = icmp eq i32 %101, 1
  br i1 %102, label %103, label %112

103:                                              ; preds = %98
  %104 = load ptr, ptr %3, align 8, !tbaa !26
  %105 = getelementptr inbounds nuw %struct.IDCTDSPContext, ptr %104, i32 0, i32 4
  store ptr @ff_jref_idct_put, ptr %105, align 8, !tbaa !47
  %106 = load ptr, ptr %3, align 8, !tbaa !26
  %107 = getelementptr inbounds nuw %struct.IDCTDSPContext, ptr %106, i32 0, i32 5
  store ptr @ff_jref_idct_add, ptr %107, align 8, !tbaa !49
  %108 = load ptr, ptr %3, align 8, !tbaa !26
  %109 = getelementptr inbounds nuw %struct.IDCTDSPContext, ptr %108, i32 0, i32 3
  store ptr @ff_j_rev_dct, ptr %109, align 8, !tbaa !50
  %110 = load ptr, ptr %3, align 8, !tbaa !26
  %111 = getelementptr inbounds nuw %struct.IDCTDSPContext, ptr %110, i32 0, i32 7
  store i32 1, ptr %111, align 8, !tbaa !51
  br label %136

112:                                              ; preds = %98
  %113 = load ptr, ptr %4, align 8, !tbaa !28
  %114 = getelementptr inbounds nuw %struct.AVCodecContext, ptr %113, i32 0, i32 113
  %115 = load i32, ptr %114, align 4, !tbaa !53
  %116 = icmp eq i32 %115, 20
  br i1 %116, label %117, label %126

117:                                              ; preds = %112
  %118 = load ptr, ptr %3, align 8, !tbaa !26
  %119 = getelementptr inbounds nuw %struct.IDCTDSPContext, ptr %118, i32 0, i32 4
  store ptr @ff_faanidct_put, ptr %119, align 8, !tbaa !47
  %120 = load ptr, ptr %3, align 8, !tbaa !26
  %121 = getelementptr inbounds nuw %struct.IDCTDSPContext, ptr %120, i32 0, i32 5
  store ptr @ff_faanidct_add, ptr %121, align 8, !tbaa !49
  %122 = load ptr, ptr %3, align 8, !tbaa !26
  %123 = getelementptr inbounds nuw %struct.IDCTDSPContext, ptr %122, i32 0, i32 3
  store ptr @ff_faanidct, ptr %123, align 8, !tbaa !50
  %124 = load ptr, ptr %3, align 8, !tbaa !26
  %125 = getelementptr inbounds nuw %struct.IDCTDSPContext, ptr %124, i32 0, i32 7
  store i32 0, ptr %125, align 8, !tbaa !51
  br label %135

126:                                              ; preds = %112
  %127 = load ptr, ptr %3, align 8, !tbaa !26
  %128 = getelementptr inbounds nuw %struct.IDCTDSPContext, ptr %127, i32 0, i32 4
  store ptr @ff_simple_idct_put_int16_8bit, ptr %128, align 8, !tbaa !47
  %129 = load ptr, ptr %3, align 8, !tbaa !26
  %130 = getelementptr inbounds nuw %struct.IDCTDSPContext, ptr %129, i32 0, i32 5
  store ptr @ff_simple_idct_add_int16_8bit, ptr %130, align 8, !tbaa !49
  %131 = load ptr, ptr %3, align 8, !tbaa !26
  %132 = getelementptr inbounds nuw %struct.IDCTDSPContext, ptr %131, i32 0, i32 3
  store ptr @ff_simple_idct_int16_8bit, ptr %132, align 8, !tbaa !50
  %133 = load ptr, ptr %3, align 8, !tbaa !26
  %134 = getelementptr inbounds nuw %struct.IDCTDSPContext, ptr %133, i32 0, i32 7
  store i32 0, ptr %134, align 8, !tbaa !51
  br label %135

135:                                              ; preds = %126, %117
  br label %136

136:                                              ; preds = %135, %103
  br label %137

137:                                              ; preds = %136, %89
  br label %138

138:                                              ; preds = %137, %81
  br label %139

139:                                              ; preds = %138, %43
  br label %140

140:                                              ; preds = %139, %29
  br label %141

141:                                              ; preds = %140, %15
  %142 = load ptr, ptr %3, align 8, !tbaa !26
  %143 = getelementptr inbounds nuw %struct.IDCTDSPContext, ptr %142, i32 0, i32 0
  store ptr @ff_put_pixels_clamped_c, ptr %143, align 8, !tbaa !54
  %144 = load ptr, ptr %3, align 8, !tbaa !26
  %145 = getelementptr inbounds nuw %struct.IDCTDSPContext, ptr %144, i32 0, i32 1
  store ptr @put_signed_pixels_clamped_c, ptr %145, align 8, !tbaa !55
  %146 = load ptr, ptr %3, align 8, !tbaa !26
  %147 = getelementptr inbounds nuw %struct.IDCTDSPContext, ptr %146, i32 0, i32 2
  store ptr @ff_add_pixels_clamped_c, ptr %147, align 8, !tbaa !56
  %148 = load ptr, ptr %4, align 8, !tbaa !28
  %149 = getelementptr inbounds nuw %struct.AVCodecContext, ptr %148, i32 0, i32 113
  %150 = load i32, ptr %149, align 4, !tbaa !53
  %151 = icmp eq i32 %150, 14
  br i1 %151, label %152, label %155

152:                                              ; preds = %141
  %153 = load ptr, ptr %3, align 8, !tbaa !26
  %154 = load ptr, ptr %4, align 8, !tbaa !28
  call void @ff_xvid_idct_init(ptr noundef %153, ptr noundef %154)
  br label %155

155:                                              ; preds = %152, %141
  %156 = load ptr, ptr %3, align 8, !tbaa !26
  %157 = getelementptr inbounds nuw %struct.IDCTDSPContext, ptr %156, i32 0, i32 6
  %158 = getelementptr inbounds [64 x i8], ptr %157, i64 0, i64 0
  %159 = load ptr, ptr %3, align 8, !tbaa !26
  %160 = getelementptr inbounds nuw %struct.IDCTDSPContext, ptr %159, i32 0, i32 7
  %161 = load i32, ptr %160, align 8, !tbaa !51
  call void @ff_init_scantable_permutation(ptr noundef %158, i32 noundef %161) #7
  call void @llvm.lifetime.end.p0(i64 4, ptr %5) #5
  ret void
}