; Function Attrs: cold nounwind optsize uwtable
define void @ff_idctdsp_init(ptr noundef initializes((0, 48), (112, 116)) %0, ptr noundef %1) local_unnamed_addr #1 {
  %3 = getelementptr inbounds nuw i8, ptr %1, i64 724
  %4 = load i32, ptr %3, align 4, !tbaa !17
  switch i32 %4, label %20 [
    i32 1, label %5
    i32 2, label %10
    i32 3, label %15
  ]

5:                                                ; preds = %2
  %6 = getelementptr inbounds nuw i8, ptr %0, i64 32
  store ptr @ff_jref_idct4_put, ptr %6, align 8, !tbaa !38
  %7 = getelementptr inbounds nuw i8, ptr %0, i64 40
  store ptr @ff_jref_idct4_add, ptr %7, align 8, !tbaa !40
  %8 = getelementptr inbounds nuw i8, ptr %0, i64 24
  store ptr @ff_j_rev_dct4, ptr %8, align 8, !tbaa !41
  %9 = getelementptr inbounds nuw i8, ptr %0, i64 112
  store i32 0, ptr %9, align 8, !tbaa !42
  br label %45

10:                                               ; preds = %2
  %11 = getelementptr inbounds nuw i8, ptr %0, i64 32
  store ptr @ff_jref_idct2_put, ptr %11, align 8, !tbaa !38
  %12 = getelementptr inbounds nuw i8, ptr %0, i64 40
  store ptr @ff_jref_idct2_add, ptr %12, align 8, !tbaa !40
  %13 = getelementptr inbounds nuw i8, ptr %0, i64 24
  store ptr @ff_j_rev_dct2, ptr %13, align 8, !tbaa !41
  %14 = getelementptr inbounds nuw i8, ptr %0, i64 112
  store i32 0, ptr %14, align 8, !tbaa !42
  br label %45

15:                                               ; preds = %2
  %16 = getelementptr inbounds nuw i8, ptr %0, i64 32
  store ptr @ff_jref_idct1_put, ptr %16, align 8, !tbaa !38
  %17 = getelementptr inbounds nuw i8, ptr %0, i64 40
  store ptr @ff_jref_idct1_add, ptr %17, align 8, !tbaa !40
  %18 = getelementptr inbounds nuw i8, ptr %0, i64 24
  store ptr @ff_j_rev_dct1, ptr %18, align 8, !tbaa !41
  %19 = getelementptr inbounds nuw i8, ptr %0, i64 112
  store i32 0, ptr %19, align 8, !tbaa !42
  br label %45

20:                                               ; preds = %2
  %21 = getelementptr inbounds nuw i8, ptr %1, i64 652
  %22 = load i32, ptr %21, align 4, !tbaa !43
  switch i32 %22, label %35 [
    i32 10, label %23
    i32 9, label %23
    i32 12, label %30
  ]

23:                                               ; preds = %20, %20
  %24 = getelementptr inbounds nuw i8, ptr %0, i64 116
  %25 = load i32, ptr %24, align 4, !tbaa !44
  %.not = icmp eq i32 %25, 0
  %ff_simple_idct_put_int32_10bit.sink = select i1 %.not, ptr @ff_simple_idct_put_int16_10bit, ptr @ff_simple_idct_put_int32_10bit
  %.sink55 = select i1 %.not, ptr @ff_simple_idct_add_int16_10bit, ptr null
  %.sink = select i1 %.not, ptr @ff_simple_idct_int16_10bit, ptr null
  %26 = getelementptr inbounds nuw i8, ptr %0, i64 32
  store ptr %ff_simple_idct_put_int32_10bit.sink, ptr %26, align 8, !tbaa !38
  %27 = getelementptr inbounds nuw i8, ptr %0, i64 40
  store ptr %.sink55, ptr %27, align 8, !tbaa !40
  %28 = getelementptr inbounds nuw i8, ptr %0, i64 24
  store ptr %.sink, ptr %28, align 8, !tbaa !41
  %29 = getelementptr inbounds nuw i8, ptr %0, i64 112
  store i32 0, ptr %29, align 8, !tbaa !42
  br label %45

30:                                               ; preds = %20
  %31 = getelementptr inbounds nuw i8, ptr %0, i64 32
  store ptr @ff_simple_idct_put_int16_12bit, ptr %31, align 8, !tbaa !38
  %32 = getelementptr inbounds nuw i8, ptr %0, i64 40
  store ptr @ff_simple_idct_add_int16_12bit, ptr %32, align 8, !tbaa !40
  %33 = getelementptr inbounds nuw i8, ptr %0, i64 24
  store ptr @ff_simple_idct_int16_12bit, ptr %33, align 8, !tbaa !41
  %34 = getelementptr inbounds nuw i8, ptr %0, i64 112
  store i32 0, ptr %34, align 8, !tbaa !42
  br label %45

35:                                               ; preds = %20
  %36 = getelementptr inbounds nuw i8, ptr %1, i64 644
  %37 = load i32, ptr %36, align 4, !tbaa !45
  %38 = getelementptr inbounds nuw i8, ptr %0, i64 32
  %39 = getelementptr inbounds nuw i8, ptr %0, i64 40
  %40 = getelementptr inbounds nuw i8, ptr %0, i64 24
  %41 = getelementptr inbounds nuw i8, ptr %0, i64 112
  switch i32 %37, label %44 [
    i32 1, label %42
    i32 20, label %43
  ]

42:                                               ; preds = %35
  store ptr @ff_jref_idct_put, ptr %38, align 8, !tbaa !38
  store ptr @ff_jref_idct_add, ptr %39, align 8, !tbaa !40
  store ptr @ff_j_rev_dct, ptr %40, align 8, !tbaa !41
  store i32 1, ptr %41, align 8, !tbaa !42
  br label %45

43:                                               ; preds = %35
  store ptr @ff_faanidct_put, ptr %38, align 8, !tbaa !38
  store ptr @ff_faanidct_add, ptr %39, align 8, !tbaa !40
  store ptr @ff_faanidct, ptr %40, align 8, !tbaa !41
  store i32 0, ptr %41, align 8, !tbaa !42
  br label %45

44:                                               ; preds = %35
  store ptr @ff_simple_idct_put_int16_8bit, ptr %38, align 8, !tbaa !38
  store ptr @ff_simple_idct_add_int16_8bit, ptr %39, align 8, !tbaa !40
  store ptr @ff_simple_idct_int16_8bit, ptr %40, align 8, !tbaa !41
  store i32 0, ptr %41, align 8, !tbaa !42
  br label %45

45:                                               ; preds = %10, %23, %42, %44, %43, %30, %15, %5
  %46 = phi i32 [ 0, %10 ], [ 0, %23 ], [ 1, %42 ], [ 0, %44 ], [ 0, %43 ], [ 0, %30 ], [ 0, %15 ], [ 0, %5 ]
  store ptr @ff_put_pixels_clamped_c, ptr %0, align 8, !tbaa !46
  %47 = getelementptr inbounds nuw i8, ptr %0, i64 8
  store ptr @put_signed_pixels_clamped_c, ptr %47, align 8, !tbaa !47
  %48 = getelementptr inbounds nuw i8, ptr %0, i64 16
  store ptr @ff_add_pixels_clamped_c, ptr %48, align 8, !tbaa !48
  %49 = getelementptr inbounds nuw i8, ptr %1, i64 644
  %50 = load i32, ptr %49, align 4, !tbaa !45
  %51 = icmp eq i32 %50, 14
  br i1 %51, label %52, label %53

52:                                               ; preds = %45
  tail call void @ff_xvid_idct_init(ptr noundef nonnull %0, ptr noundef nonnull %1) #7
  %.phi.trans.insert = getelementptr inbounds nuw i8, ptr %0, i64 112
  %.pre = load i32, ptr %.phi.trans.insert, align 8, !tbaa !42
  br label %53

53:                                               ; preds = %52, %45
  %54 = phi i32 [ %.pre, %52 ], [ %46, %45 ]
  %55 = getelementptr inbounds nuw i8, ptr %0, i64 48
  tail call void @ff_init_scantable_permutation(ptr noundef nonnull %55, i32 noundef %54) #8
  ret void
}